; Function Attrs: mustprogress nounwind uwtable
define internal fastcc void @_ZL15parseCondBranchPN4llvm12MachineInstrERPNS_17MachineBasicBlockERNS_15SmallVectorImplINS_14MachineOperandEEE(ptr nocapture noundef readonly %0, ptr nocapture noundef nonnull writeonly align 8 dereferenceable(8) %1, ptr noundef nonnull align 8 dereferenceable(16) %2) unnamed_addr #1 {
  %4 = alloca %"class.llvm::MachineOperand", align 8
  %5 = alloca %"class.llvm::MachineOperand", align 8
  %6 = alloca %"class.llvm::MachineOperand", align 8
  %7 = alloca %"class.llvm::MachineOperand", align 8
  %8 = getelementptr inbounds nuw i8, ptr %0, i64 68
  %9 = load i16, ptr %8, align 4
  switch i16 %9, label %10 [
    i16 1802, label %11
    i16 1833, label %17
    i16 1834, label %17
    i16 1831, label %17
    i16 1832, label %17
    i16 7015, label %29
    i16 7016, label %29
    i16 6997, label %29
    i16 6998, label %29
  ]

10:                                               ; preds = %3
  unreachable

11:                                               ; preds = %3
  %12 = getelementptr inbounds nuw i8, ptr %0, i64 32
  %13 = load ptr, ptr %12, align 8
  %14 = getelementptr inbounds i8, ptr %13, i64 48
  %15 = load ptr, ptr %14, align 8
  store ptr %15, ptr %1, align 8
  %16 = load ptr, ptr %12, align 8
  tail call void @_ZN4llvm23SmallVectorTemplateBaseINS_14MachineOperandELb1EE9push_backERKS1_(ptr noundef nonnull align 8 dereferenceable(16) %2, ptr noundef nonnull align 8 dereferenceable(32) %16)
  br label %43

17:                                               ; preds = %3, %3, %3, %3
  %18 = getelementptr inbounds nuw i8, ptr %0, i64 32
  %19 = load ptr, ptr %18, align 8
  %20 = getelementptr inbounds i8, ptr %19, i64 48
  %21 = load ptr, ptr %20, align 8
  store ptr %21, ptr %1, align 8
  store i32 1, ptr %4, align 8, !alias.scope !53
  %22 = getelementptr inbounds nuw i8, ptr %4, i64 8
  store ptr null, ptr %22, align 8, !alias.scope !53
  %23 = getelementptr inbounds nuw i8, ptr %4, i64 16
  store i64 -1, ptr %23, align 8, !alias.scope !53
  call void @_ZN4llvm23SmallVectorTemplateBaseINS_14MachineOperandELb1EE9push_backERKS1_(ptr noundef nonnull align 8 dereferenceable(16) %2, ptr noundef nonnull align 8 dereferenceable(32) %4)
  %24 = load i16, ptr %8, align 4
  %25 = zext i16 %24 to i64
  store i32 1, ptr %5, align 8, !alias.scope !56
  %26 = getelementptr inbounds nuw i8, ptr %5, i64 8
  store ptr null, ptr %26, align 8, !alias.scope !56
  %27 = getelementptr inbounds nuw i8, ptr %5, i64 16
  store i64 %25, ptr %27, align 8, !alias.scope !56
  call void @_ZN4llvm23SmallVectorTemplateBaseINS_14MachineOperandELb1EE9push_backERKS1_(ptr noundef nonnull align 8 dereferenceable(16) %2, ptr noundef nonnull align 8 dereferenceable(32) %5)
  %28 = load ptr, ptr %18, align 8
  call void @_ZN4llvm23SmallVectorTemplateBaseINS_14MachineOperandELb1EE9push_backERKS1_(ptr noundef nonnull align 8 dereferenceable(16) %2, ptr noundef nonnull align 8 dereferenceable(32) %28)
  br label %43

29:                                               ; preds = %3, %3, %3, %3
  %30 = getelementptr inbounds nuw i8, ptr %0, i64 32
  %31 = load ptr, ptr %30, align 8
  %32 = getelementptr inbounds i8, ptr %31, i64 80
  %33 = load ptr, ptr %32, align 8
  store ptr %33, ptr %1, align 8
  store i32 1, ptr %6, align 8, !alias.scope !59
  %34 = getelementptr inbounds nuw i8, ptr %6, i64 8
  store ptr null, ptr %34, align 8, !alias.scope !59
  %35 = getelementptr inbounds nuw i8, ptr %6, i64 16
  store i64 -1, ptr %35, align 8, !alias.scope !59
  call void @_ZN4llvm23SmallVectorTemplateBaseINS_14MachineOperandELb1EE9push_backERKS1_(ptr noundef nonnull align 8 dereferenceable(16) %2, ptr noundef nonnull align 8 dereferenceable(32) %6)
  %36 = load i16, ptr %8, align 4
  %37 = zext i16 %36 to i64
  store i32 1, ptr %7, align 8, !alias.scope !62
  %38 = getelementptr inbounds nuw i8, ptr %7, i64 8
  store ptr null, ptr %38, align 8, !alias.scope !62
  %39 = getelementptr inbounds nuw i8, ptr %7, i64 16
  store i64 %37, ptr %39, align 8, !alias.scope !62
  call void @_ZN4llvm23SmallVectorTemplateBaseINS_14MachineOperandELb1EE9push_backERKS1_(ptr noundef nonnull align 8 dereferenceable(16) %2, ptr noundef nonnull align 8 dereferenceable(32) %7)
  %40 = load ptr, ptr %30, align 8
  call void @_ZN4llvm23SmallVectorTemplateBaseINS_14MachineOperandELb1EE9push_backERKS1_(ptr noundef nonnull align 8 dereferenceable(16) %2, ptr noundef nonnull align 8 dereferenceable(32) %40)
  %41 = load ptr, ptr %30, align 8
  %42 = getelementptr inbounds i8, ptr %41, i64 32
  call void @_ZN4llvm23SmallVectorTemplateBaseINS_14MachineOperandELb1EE9push_backERKS1_(ptr noundef nonnull align 8 dereferenceable(16) %2, ptr noundef nonnull align 8 dereferenceable(32) %42)
  br label %43

43:                                               ; preds = %29, %17, %11
  ret void
}